; Function Attrs: nounwind uwtable
define noundef nonnull ptr @l_Std_DHashMap_Internal_AssocList_contains___at_Lean_IR_CollectMaps_collectJP___spec__1___boxed(ptr noundef %0, ptr noundef %1) local_unnamed_addr #0 {
  %3 = ptrtoint ptr %0 to i64
  %4 = and i64 %3, 1
  br label %.backedge.i

.backedge.i:                                      ; preds = %.backedge.i.backedge, %2
  %.011.i = phi ptr [ %1, %2 ], [ %18, %.backedge.i.backedge ]
  %5 = ptrtoint ptr %.011.i to i64
  %6 = and i64 %5, 1
  %.not.i.i = icmp eq i64 %6, 0
  br i1 %.not.i.i, label %10, label %7

7:                                                ; preds = %.backedge.i
  %8 = lshr i64 %5, 1
  %9 = trunc i64 %8 to i32
  br label %lean_obj_tag.exit.i

10:                                               ; preds = %.backedge.i
  %11 = getelementptr i8, ptr %.011.i, i64 4
  %.val.i.i = load i32, ptr %11, align 4
  %12 = lshr i32 %.val.i.i, 24
  br label %lean_obj_tag.exit.i

lean_obj_tag.exit.i:                              ; preds = %10, %7
  %.0.i13.i = phi i32 [ %9, %7 ], [ %12, %10 ]
  %13 = icmp eq i32 %.0.i13.i, 0
  br i1 %13, label %l_Std_DHashMap_Internal_AssocList_contains___at_Lean_IR_CollectMaps_collectJP___spec__1.exit, label %14

14:                                               ; preds = %lean_obj_tag.exit.i
  %15 = getelementptr inbounds nuw i8, ptr %.011.i, i64 8
  %16 = load ptr, ptr %15, align 8, !tbaa !4
  %17 = getelementptr inbounds nuw i8, ptr %.011.i, i64 24
  %18 = load ptr, ptr %17, align 8, !tbaa !4
  %19 = ptrtoint ptr %16 to i64
  %20 = and i64 %4, %19
  %or.cond.not.i = icmp eq i64 %20, 0
  br i1 %or.cond.not.i, label %lean_nat_eq.exit.i, label %21, !prof !17

21:                                               ; preds = %14
  %22 = icmp eq ptr %16, %0
  br i1 %22, label %l_Std_DHashMap_Internal_AssocList_contains___at_Lean_IR_CollectMaps_collectJP___spec__1.exit, label %.backedge.i.backedge

lean_nat_eq.exit.i:                               ; preds = %14
  %23 = tail call zeroext i1 @lean_nat_big_eq(ptr noundef %16, ptr noundef %0) #4
  br i1 %23, label %l_Std_DHashMap_Internal_AssocList_contains___at_Lean_IR_CollectMaps_collectJP___spec__1.exit, label %.backedge.i.backedge

.backedge.i.backedge:                             ; preds = %lean_nat_eq.exit.i, %21
  br label %.backedge.i

l_Std_DHashMap_Internal_AssocList_contains___at_Lean_IR_CollectMaps_collectJP___spec__1.exit: ; preds = %lean_obj_tag.exit.i, %21, %lean_nat_eq.exit.i
  %.1.i = phi i64 [ 3, %lean_nat_eq.exit.i ], [ 1, %lean_obj_tag.exit.i ], [ 3, %21 ]
  %24 = ptrtoint ptr %1 to i64
  %25 = and i64 %24, 1
  %.not = icmp eq i64 %25, 0
  br i1 %.not, label %26, label %lean_dec.exit5

26:                                               ; preds = %l_Std_DHashMap_Internal_AssocList_contains___at_Lean_IR_CollectMaps_collectJP___spec__1.exit
  %27 = load i32, ptr %1, align 4, !tbaa !9
  %28 = icmp sgt i32 %27, 1
  br i1 %28, label %29, label %31, !prof !12

29:                                               ; preds = %26
  %30 = add nsw i32 %27, -1
  store i32 %30, ptr %1, align 4, !tbaa !9
  br label %lean_dec.exit5

31:                                               ; preds = %26
  %.not.i = icmp eq i32 %27, 0
  br i1 %.not.i, label %lean_dec.exit5, label %32

32:                                               ; preds = %31
  tail call void @lean_dec_ref_cold(ptr noundef nonnull %1) #4
  br label %lean_dec.exit5

lean_dec.exit5:                                   ; preds = %32, %31, %29, %l_Std_DHashMap_Internal_AssocList_contains___at_Lean_IR_CollectMaps_collectJP___spec__1.exit
  %.not8 = icmp eq i64 %4, 0
  br i1 %.not8, label %33, label %lean_dec.exit

33:                                               ; preds = %lean_dec.exit5
  %34 = load i32, ptr %0, align 4, !tbaa !9
  %35 = icmp sgt i32 %34, 1
  br i1 %35, label %36, label %38, !prof !12

36:                                               ; preds = %33
  %37 = add nsw i32 %34, -1
  store i32 %37, ptr %0, align 4, !tbaa !9
  br label %lean_dec.exit

38:                                               ; preds = %33
  %.not.i6 = icmp eq i32 %34, 0
  br i1 %.not.i6, label %lean_dec.exit, label %39

39:                                               ; preds = %38
  tail call void @lean_dec_ref_cold(ptr noundef nonnull %0) #4
  br label %lean_dec.exit

lean_dec.exit:                                    ; preds = %39, %38, %36, %lean_dec.exit5
  %40 = inttoptr i64 %.1.i to ptr
  ret ptr %40
}